; ModuleID = '22/740.c'
source_filename = "22/740.c"
target datalayout = "e-m:e-p270:32:32-p271:32:32-p272:64:64-i64:64-f80:128-n8:16:32:64-S128"
target triple = "x86_64-pc-linux-gnu"

@.str = private unnamed_addr constant [5 x i8] c"%d%c\00", align 1
@.str.1 = private unnamed_addr constant [3 x i8] c"No\00", align 1
@.str.2 = private unnamed_addr constant [3 x i8] c"%d\00", align 1

; Function Attrs: noinline nounwind uwtable
define dso_local i32 @main() #0 {
  %1 = alloca i32, align 4
  %2 = alloca i8, align 1
  %3 = alloca [300 x i32], align 16
  %4 = alloca i32, align 4
  %5 = alloca i32, align 4
  %6 = alloca i32, align 4
  %7 = alloca i32, align 4
  %8 = alloca i32, align 4
  store i32 0, i32* %1, align 4
  %9 = bitcast [300 x i32]* %3 to i8*
  call void @llvm.memset.p0i8.i64(i8* align 16 %9, i8 0, i64 1200, i1 false)
  %10 = bitcast i8* %9 to <{ i32, [299 x i32] }>*
  %11 = getelementptr inbounds <{ i32, [299 x i32] }>, <{ i32, [299 x i32] }>* %10, i32 0, i32 0
  store i32 -1, i32* %11, align 16
  store i32 -1, i32* %7, align 4
  store i32 -1, i32* %8, align 4
  store i32 0, i32* %4, align 4
  store i32 0, i32* %5, align 4
  br label %12

12:                                               ; preds = %19, %0
  %13 = load i32, i32* %5, align 4
  %14 = icmp slt i32 %13, 300
  br i1 %14, label %15, label %22

15:                                               ; preds = %12
  %16 = load i32, i32* %5, align 4
  %17 = sext i32 %16 to i64
  %18 = getelementptr inbounds [300 x i32], [300 x i32]* %3, i64 0, i64 %17
  store i32 -1, i32* %18, align 4
  br label %19

19:                                               ; preds = %15
  %20 = load i32, i32* %5, align 4
  %21 = add nsw i32 %20, 1
  store i32 %21, i32* %5, align 4
  br label %12

22:                                               ; preds = %12
  br label %23

23:                                               ; preds = %30, %22
  %24 = load i32, i32* %4, align 4
  %25 = sext i32 %24 to i64
  %26 = getelementptr inbounds [300 x i32], [300 x i32]* %3, i64 0, i64 %25
  %27 = call i32 (i8*, ...) @__isoc99_scanf(i8* getelementptr inbounds ([5 x i8], [5 x i8]* @.str, i64 0, i64 0), i32* %26, i8* %2)
  %28 = load i32, i32* %4, align 4
  %29 = add nsw i32 %28, 1
  store i32 %29, i32* %4, align 4
  br label %30

30:                                               ; preds = %23
  %31 = load i8, i8* %2, align 1
  %32 = sext i8 %31 to i32
  %33 = icmp eq i32 %32, 44
  br i1 %33, label %23, label %34

34:                                               ; preds = %30
  %35 = load i32, i32* %4, align 4
  store i32 %35, i32* %6, align 4
  store i32 0, i32* %4, align 4
  br label %36

36:                                               ; preds = %73, %34
  %37 = load i32, i32* %4, align 4
  %38 = sext i32 %37 to i64
  %39 = getelementptr inbounds [300 x i32], [300 x i32]* %3, i64 0, i64 %38
  %40 = load i32, i32* %39, align 4
  %41 = load i32, i32* %7, align 4
  %42 = icmp sgt i32 %40, %41
  br i1 %42, label %43, label %50

43:                                               ; preds = %36
  %44 = load i32, i32* %7, align 4
  store i32 %44, i32* %5, align 4
  %45 = load i32, i32* %4, align 4
  %46 = sext i32 %45 to i64
  %47 = getelementptr inbounds [300 x i32], [300 x i32]* %3, i64 0, i64 %46
  %48 = load i32, i32* %47, align 4
  store i32 %48, i32* %7, align 4
  %49 = load i32, i32* %5, align 4
  store i32 %49, i32* %8, align 4
  br label %70

50:                                               ; preds = %36
  %51 = load i32, i32* %4, align 4
  %52 = sext i32 %51 to i64
  %53 = getelementptr inbounds [300 x i32], [300 x i32]* %3, i64 0, i64 %52
  %54 = load i32, i32* %53, align 4
  %55 = load i32, i32* %7, align 4
  %56 = icmp slt i32 %54, %55
  br i1 %56, label %57, label %69

57:                                               ; preds = %50
  %58 = load i32, i32* %4, align 4
  %59 = sext i32 %58 to i64
  %60 = getelementptr inbounds [300 x i32], [300 x i32]* %3, i64 0, i64 %59
  %61 = load i32, i32* %60, align 4
  %62 = load i32, i32* %8, align 4
  %63 = icmp sge i32 %61, %62
  br i1 %63, label %64, label %69

64:                                               ; preds = %57
  %65 = load i32, i32* %4, align 4
  %66 = sext i32 %65 to i64
  %67 = getelementptr inbounds [300 x i32], [300 x i32]* %3, i64 0, i64 %66
  %68 = load i32, i32* %67, align 4
  store i32 %68, i32* %8, align 4
  br label %69

69:                                               ; preds = %64, %57, %50
  br label %70

70:                                               ; preds = %69, %43
  %71 = load i32, i32* %4, align 4
  %72 = add nsw i32 %71, 1
  store i32 %72, i32* %4, align 4
  br label %73

73:                                               ; preds = %70
  %74 = load i32, i32* %4, align 4
  %75 = sext i32 %74 to i64
  %76 = getelementptr inbounds [300 x i32], [300 x i32]* %3, i64 0, i64 %75
  %77 = load i32, i32* %76, align 4
  %78 = icmp ne i32 %77, -1
  br i1 %78, label %36, label %79

79:                                               ; preds = %73
  %80 = load i32, i32* %6, align 4
  %81 = icmp eq i32 %80, 1
  br i1 %81, label %82, label %84

82:                                               ; preds = %79
  %83 = call i32 (i8*, ...) @printf(i8* getelementptr inbounds ([3 x i8], [3 x i8]* @.str.1, i64 0, i64 0))
  br label %96

84:                                               ; preds = %79
  %85 = load i32, i32* %8, align 4
  %86 = icmp eq i32 %85, 0
  br i1 %86, label %90, label %87

87:                                               ; preds = %84
  %88 = load i32, i32* %8, align 4
  %89 = icmp eq i32 %88, -1
  br i1 %89, label %90, label %92

90:                                               ; preds = %87, %84
  %91 = call i32 (i8*, ...) @printf(i8* getelementptr inbounds ([3 x i8], [3 x i8]* @.str.1, i64 0, i64 0))
  br label %95

92:                                               ; preds = %87
  %93 = load i32, i32* %8, align 4
  %94 = call i32 (i8*, ...) @printf(i8* getelementptr inbounds ([3 x i8], [3 x i8]* @.str.2, i64 0, i64 0), i32 %93)
  br label %95

95:                                               ; preds = %92, %90
  br label %96

96:                                               ; preds = %95, %82
  ret i32 0
}

; Function Attrs: argmemonly nounwind willreturn
declare void @llvm.memset.p0i8.i64(i8* nocapture writeonly, i8, i64, i1 immarg) #1

declare dso_local i32 @__isoc99_scanf(i8*, ...) #2

declare dso_local i32 @printf(i8*, ...) #2


!llvm.module.flags = !{!0}
!llvm.ident = !{!1}

!0 = !{i32 1, !"wchar_size", i32 4}
!1 = !{!"clang version 10.0.0-4ubuntu1 "}
